; Function Attrs: mustprogress uwtable
define void @_ZN32pxrInternal_v0_24__pxrReserved__27HdContainerDataSourceEditor29_FinishWithNoInitialContainerEv(ptr dead_on_unwind noalias nocapture writable writeonly sret(%"class.std::shared_ptr.0") align 8 %0, ptr noundef nonnull align 8 dereferenceable(264) %1) local_unnamed_addr #0 align 2 personality ptr @__gxx_personality_v0 {
_ZNSt10shared_ptrIN32pxrInternal_v0_24__pxrReserved__27HdContainerDataSourceEditor24_NodeContainerDataSourceEED2Ev.exit:
  %2 = alloca %"class.std::shared_ptr.16", align 8
  call void @_ZN32pxrInternal_v0_24__pxrReserved__27HdContainerDataSourceEditor24_NodeContainerDataSource3NewIJRSt10shared_ptrINS0_5_NodeEEEEES3_IS1_EDpOT_(ptr dead_on_unwind nonnull writable sret(%"class.std::shared_ptr.16") align 8 %2, ptr noundef nonnull align 8 dereferenceable(16) %1)
  %3 = load ptr, ptr %2, align 8
  store ptr %3, ptr %0, align 8
  %4 = getelementptr inbounds nuw i8, ptr %0, i64 8
  %5 = getelementptr inbounds nuw i8, ptr %2, i64 8
  %6 = load ptr, ptr %5, align 8
  store ptr %6, ptr %4, align 8
  ret void
}